; Function Attrs: nounwind uwtable
define hidden void @b2DestroyArenaAllocator(ptr noundef captures(none) initializes((32, 36)) %0) local_unnamed_addr #0 {
  %2 = getelementptr inbounds nuw i8, ptr %0, i64 24
  %3 = load ptr, ptr %2, align 8, !tbaa !10
  %4 = getelementptr inbounds nuw i8, ptr %0, i64 36
  %5 = load i32, ptr %4, align 4, !tbaa !3
  %6 = mul i32 %5, 24
  tail call void @b2Free(ptr noundef %3, i32 noundef %6) #4
  tail call void @llvm.memset.p0.i64(ptr noundef nonnull align 8 dereferenceable(16) %2, i8 0, i64 16, i1 false)
  %7 = load ptr, ptr %0, align 8, !tbaa !14
  %8 = getelementptr inbounds nuw i8, ptr %0, i64 8
  %9 = load i32, ptr %8, align 8, !tbaa !11
  tail call void @b2Free(ptr noundef %7, i32 noundef %9) #4
  ret void
}